; Function Attrs: cold nounwind optsize uwtable
define internal void @lut3d_uninit(ptr noundef readonly captures(none) %0) #0 {
  %2 = getelementptr inbounds nuw i8, ptr %0, i64 72
  %3 = load ptr, ptr %2, align 8, !tbaa !4
  %4 = getelementptr inbounds nuw i8, ptr %3, i64 8
  tail call void @av_freep(ptr noundef nonnull %4) #21
  %5 = getelementptr inbounds nuw i8, ptr %3, i64 104
  br label %6

6:                                                ; preds = %1, %6
  %indvars.iv = phi i64 [ 0, %1 ], [ %indvars.iv.next, %6 ]
  %7 = getelementptr inbounds nuw [3 x ptr], ptr %5, i64 0, i64 %indvars.iv
  tail call void @av_freep(ptr noundef nonnull %7) #21
  %indvars.iv.next = add nuw nsw i64 %indvars.iv, 1
  %exitcond.not = icmp eq i64 %indvars.iv.next, 3
  br i1 %exitcond.not, label %8, label %6, !llvm.loop !76

8:                                                ; preds = %6
  ret void
}